; Function Attrs: nounwind sspstrong uwtable
define internal i64 @float_rationalize(i32 noundef %0, ptr noundef readonly captures(none) %1, i64 noundef %2) #0 {
  %4 = and i64 %2, 3
  %5 = icmp eq i64 %4, 2
  br i1 %5, label %6, label %13

6:                                                ; preds = %3
  %.not.i.i = icmp eq i64 %2, -9223372036854775806
  br i1 %.not.i.i, label %rb_float_new_inline.exit, label %7

7:                                                ; preds = %6
  %.neg.i.i = ashr i64 %2, 63
  %8 = add nsw i64 %.neg.i.i, 2
  %9 = and i64 %2, -4
  %10 = or i64 %8, %9
  %11 = tail call noundef i64 @llvm.fshl.i64(i64 range(i64 1, 0) %10, i64 range(i64 1, 0) %10, i64 61)
  %12 = bitcast i64 %11 to double
  br label %rb_float_value_inline.exit

13:                                               ; preds = %3
  %14 = inttoptr i64 %2 to ptr
  %15 = getelementptr inbounds nuw i8, ptr %14, i64 16
  %16 = load double, ptr %15, align 8, !tbaa !22
  br label %rb_float_value_inline.exit

rb_float_value_inline.exit:                       ; preds = %7, %13
  %.0.i = phi double [ %16, %13 ], [ %12, %7 ]
  %17 = fcmp olt double %.0.i, 0.000000e+00
  br i1 %17, label %18, label %rb_float_new_inline.exit

18:                                               ; preds = %rb_float_value_inline.exit
  %19 = fneg double %.0.i
  %20 = bitcast double %19 to i64
  %cond.i = icmp eq i64 %20, 3458764513820540928
  br i1 %cond.i, label %30, label %21

21:                                               ; preds = %18
  %22 = lshr i64 %20, 60
  %23 = trunc nuw nsw i64 %22 to i32
  %24 = add nsw i32 %23, -3
  %.not7.i = icmp ult i32 %24, 2
  br i1 %.not7.i, label %25, label %28

25:                                               ; preds = %21
  %26 = shl i64 %20, 3
  %27 = or disjoint i64 %26, 2
  br label %rb_float_new_inline.exit

28:                                               ; preds = %21
  %29 = icmp eq i64 %20, 0
  br i1 %29, label %rb_float_new_inline.exit, label %30

30:                                               ; preds = %28, %18
  %31 = tail call i64 @rb_float_new_in_heap(double noundef %19) #17
  br label %rb_float_new_inline.exit

rb_float_new_inline.exit:                         ; preds = %6, %30, %28, %25, %rb_float_value_inline.exit
  %32 = phi i1 [ false, %rb_float_value_inline.exit ], [ true, %25 ], [ true, %28 ], [ true, %30 ], [ false, %6 ]
  %.0 = phi i64 [ %2, %rb_float_value_inline.exit ], [ %27, %25 ], [ -9223372036854775806, %28 ], [ %31, %30 ], [ -9223372036854775806, %6 ]
  %or.cond.i = icmp ugt i32 %0, 1
  br i1 %or.cond.i, label %33, label %rb_check_arity.exit

33:                                               ; preds = %rb_float_new_inline.exit
  tail call void @rb_error_arity(i32 noundef %0, i32 noundef 0, i32 noundef 1) #20
  unreachable

rb_check_arity.exit:                              ; preds = %rb_float_new_inline.exit
  %.not = icmp eq i32 %0, 0
  br i1 %.not, label %37, label %34

34:                                               ; preds = %rb_check_arity.exit
  %35 = load i64, ptr %1, align 8, !tbaa !18
  %36 = tail call i64 @rb_flt_rationalize_with_prec(i64 noundef %.0, i64 noundef %35)
  br label %39

37:                                               ; preds = %rb_check_arity.exit
  %38 = tail call i64 @rb_flt_rationalize(i64 noundef %.0)
  br label %39

39:                                               ; preds = %37, %34
  %.011 = phi i64 [ %36, %34 ], [ %38, %37 ]
  br i1 %32, label %40, label %RATIONAL_SET_NUM.exit

40:                                               ; preds = %39
  %41 = inttoptr i64 %.011 to ptr
  %42 = getelementptr inbounds nuw i8, ptr %41, i64 16
  %43 = load i64, ptr %42, align 8, !tbaa !19
  %44 = tail call i64 @rb_int_uminus(i64 noundef %43) #17
  store i64 %44, ptr %42, align 8, !tbaa !18
  %45 = icmp eq i64 %44, 0
  %46 = and i64 %44, 7
  %47 = icmp ne i64 %46, 0
  %48 = or i1 %45, %47
  br i1 %48, label %RATIONAL_SET_NUM.exit, label %49

49:                                               ; preds = %40
  tail call void @rb_gc_writebarrier(i64 noundef %.011, i64 noundef %44) #17
  br label %RATIONAL_SET_NUM.exit

RATIONAL_SET_NUM.exit:                            ; preds = %49, %40, %39
  ret i64 %.011
}